; Function Attrs: nounwind uwtable
define internal void @cast_arr_to_vec(ptr noundef %0, ptr nocapture noundef %1, ptr noundef %2) #0 {
  %4 = tail call ptr @type_get_indexed_type(ptr noundef %2) #10
  br label %5

5:                                                ; preds = %18, %3
  %.0.i = phi ptr [ %4, %3 ], [ %.1.i, %18 ]
  %6 = getelementptr inbounds i8, ptr %.0.i, i64 8
  %7 = load ptr, ptr %6, align 8
  %8 = load i32, ptr %7, align 8
  switch i32 %8, label %type_flatten.exit [
    i32 32, label %9
    i32 40, label %15
    i32 31, label %17
  ]

9:                                                ; preds = %5
  %10 = getelementptr inbounds i8, ptr %7, i64 56
  %11 = load ptr, ptr %10, align 8
  %12 = getelementptr inbounds i8, ptr %11, i64 96
  %13 = load ptr, ptr %12, align 8
  %14 = getelementptr inbounds i8, ptr %13, i64 8
  br label %18

15:                                               ; preds = %5
  %16 = getelementptr inbounds i8, ptr %7, i64 56
  br label %18

17:                                               ; preds = %5
  tail call void (ptr, ...) @error_exit(ptr noundef nonnull @.str.2, ptr noundef nonnull @.str.3, ptr noundef nonnull @__func__.type_flatten, ptr noundef nonnull @.str.10, i32 noundef 2984) #11
  unreachable

18:                                               ; preds = %15, %9
  %.1.in.i = phi ptr [ %16, %15 ], [ %14, %9 ]
  %.1.i = load ptr, ptr %.1.in.i, align 8
  br label %5

type_flatten.exit:                                ; preds = %5
  %19 = load ptr, ptr %1, align 8
  %20 = tail call ptr @type_get_indexed_type(ptr noundef %19) #10
  br label %21

21:                                               ; preds = %34, %type_flatten.exit
  %.0.i22 = phi ptr [ %20, %type_flatten.exit ], [ %.1.i24, %34 ]
  %22 = getelementptr inbounds i8, ptr %.0.i22, i64 8
  %23 = load ptr, ptr %22, align 8
  %24 = load i32, ptr %23, align 8
  switch i32 %24, label %type_flatten.exit25 [
    i32 32, label %25
    i32 40, label %31
    i32 31, label %33
  ]

25:                                               ; preds = %21
  %26 = getelementptr inbounds i8, ptr %23, i64 56
  %27 = load ptr, ptr %26, align 8
  %28 = getelementptr inbounds i8, ptr %27, i64 96
  %29 = load ptr, ptr %28, align 8
  %30 = getelementptr inbounds i8, ptr %29, i64 8
  br label %34

31:                                               ; preds = %21
  %32 = getelementptr inbounds i8, ptr %23, i64 56
  br label %34

33:                                               ; preds = %21
  tail call void (ptr, ...) @error_exit(ptr noundef nonnull @.str.2, ptr noundef nonnull @.str.3, ptr noundef nonnull @__func__.type_flatten, ptr noundef nonnull @.str.10, i32 noundef 2984) #11
  unreachable

34:                                               ; preds = %31, %25
  %.1.in.i23 = phi ptr [ %32, %31 ], [ %30, %25 ]
  %.1.i24 = load ptr, ptr %.1.in.i23, align 8
  br label %21

type_flatten.exit25:                              ; preds = %21
  %35 = icmp eq ptr %7, %23
  br i1 %35, label %51, label %.preheader

.preheader:                                       ; preds = %type_flatten.exit25, %.preheader.backedge
  %.0.i26.in = phi ptr [ %.0.i26.in.be, %.preheader.backedge ], [ %1, %type_flatten.exit25 ]
  %.0.i26 = load ptr, ptr %.0.i26.in, align 8
  %36 = getelementptr inbounds i8, ptr %.0.i26, i64 8
  %37 = load ptr, ptr %36, align 8
  %38 = load i32, ptr %37, align 8
  switch i32 %38, label %type_flatten.exit29 [
    i32 32, label %39
    i32 40, label %45
    i32 31, label %47
  ]

39:                                               ; preds = %.preheader
  %40 = getelementptr inbounds i8, ptr %37, i64 56
  %41 = load ptr, ptr %40, align 8
  %42 = getelementptr inbounds i8, ptr %41, i64 96
  %43 = load ptr, ptr %42, align 8
  %44 = getelementptr inbounds i8, ptr %43, i64 8
  br label %.preheader.backedge

45:                                               ; preds = %.preheader
  %46 = getelementptr inbounds i8, ptr %37, i64 56
  br label %.preheader.backedge

.preheader.backedge:                              ; preds = %45, %39
  %.0.i26.in.be = phi ptr [ %46, %45 ], [ %44, %39 ]
  br label %.preheader

47:                                               ; preds = %.preheader
  tail call void (ptr, ...) @error_exit(ptr noundef nonnull @.str.2, ptr noundef nonnull @.str.3, ptr noundef nonnull @__func__.type_flatten, ptr noundef nonnull @.str.10, i32 noundef 2984) #11
  unreachable

type_flatten.exit29:                              ; preds = %.preheader
  %48 = getelementptr inbounds i8, ptr %37, i64 64
  %49 = load i32, ptr %48, align 8
  %50 = tail call ptr @type_get_vector(ptr noundef nonnull %23, i32 noundef %49) #10
  br label %51

51:                                               ; preds = %type_flatten.exit25, %type_flatten.exit29
  %52 = phi ptr [ %50, %type_flatten.exit29 ], [ %2, %type_flatten.exit25 ]
  %53 = getelementptr inbounds i8, ptr %1, i64 16
  %54 = load i16, ptr %53, align 8
  %55 = and i16 %54, 255
  %56 = icmp eq i16 %55, 14
  br i1 %56, label %57, label %61

57:                                               ; preds = %51
  %58 = getelementptr inbounds i8, ptr %1, i64 32
  %59 = load ptr, ptr %58, align 8
  %60 = getelementptr inbounds i8, ptr %59, i64 8
  store ptr %52, ptr %60, align 8
  br label %75

61:                                               ; preds = %51
  %62 = tail call noundef ptr @vmem_alloc(ptr noundef nonnull @expr_arena, i64 noundef 56) #10
  tail call void @llvm.memcpy.p0.p0.i64(ptr noundef nonnull align 8 dereferenceable(56) %62, ptr noundef nonnull align 8 dereferenceable(56) %1, i64 56, i1 false)
  %63 = load i16, ptr %53, align 8
  %64 = and i16 %63, -256
  %65 = or disjoint i16 %64, 9
  store i16 %65, ptr %53, align 8
  %66 = getelementptr inbounds i8, ptr %1, i64 24
  store i8 3, ptr %66, align 8
  %67 = load ptr, ptr @expr_arena, align 8
  %68 = ptrtoint ptr %62 to i64
  %69 = ptrtoint ptr %67 to i64
  %70 = sub i64 %68, %69
  %71 = sdiv exact i64 %70, 56
  %72 = trunc i64 %71 to i32
  %73 = getelementptr inbounds i8, ptr %1, i64 28
  store i32 %72, ptr %73, align 4
  %74 = getelementptr inbounds i8, ptr %1, i64 32
  store i32 0, ptr %74, align 8
  br label %75

75:                                               ; preds = %61, %57
  store ptr %52, ptr %1, align 8
  %.not = icmp eq ptr %52, %2
  br i1 %.not, label %77, label %76

76:                                               ; preds = %75
  tail call void @cast_vec_to_vec(ptr noundef %0, ptr noundef nonnull %1, ptr noundef %2)
  br label %77

77:                                               ; preds = %76, %75
  ret void
}